; Function Attrs: nounwind uwtable
define ptr @l_Lean_PersistentHashMap_findEntry_x3f___rarg(ptr noundef %0, ptr noundef %1, ptr noundef %2, ptr noundef %3) #2 {
  %5 = ptrtoint ptr %3 to i64
  %6 = and i64 %5, 1
  %.not = icmp eq i64 %6, 0
  br i1 %.not, label %7, label %lean_inc.exit

7:                                                ; preds = %4
  %.val.i = load i32, ptr %3, align 4, !tbaa !4
  %8 = icmp sgt i32 %.val.i, 0
  br i1 %8, label %9, label %11, !prof !11

9:                                                ; preds = %7
  %10 = add nuw i32 %.val.i, 1
  store i32 %10, ptr %3, align 4, !tbaa !4
  br label %lean_inc.exit

11:                                               ; preds = %7
  %.not.i10 = icmp eq i32 %.val.i, 0
  br i1 %.not.i10, label %lean_inc.exit, label %12

12:                                               ; preds = %11
  tail call void @lean_inc_ref_cold(ptr noundef nonnull %3) #7
  br label %lean_inc.exit

lean_inc.exit:                                    ; preds = %12, %11, %9, %4
  %13 = tail call ptr @lean_apply_1(ptr noundef %1, ptr noundef %3) #7
  %14 = getelementptr i8, ptr %13, i64 8
  %.val = load i64, ptr %14, align 8, !tbaa !12
  %15 = ptrtoint ptr %13 to i64
  %16 = and i64 %15, 1
  %.not11 = icmp eq i64 %16, 0
  br i1 %.not11, label %17, label %lean_dec.exit

17:                                               ; preds = %lean_inc.exit
  %18 = load i32, ptr %13, align 4, !tbaa !4
  %19 = icmp sgt i32 %18, 1
  br i1 %19, label %20, label %22, !prof !11

20:                                               ; preds = %17
  %21 = add nsw i32 %18, -1
  store i32 %21, ptr %13, align 4, !tbaa !4
  br label %lean_dec.exit

22:                                               ; preds = %17
  %.not.i = icmp eq i32 %18, 0
  br i1 %.not.i, label %lean_dec.exit, label %23

23:                                               ; preds = %22
  tail call void @lean_dec_ref_cold(ptr noundef nonnull %13) #7
  br label %lean_dec.exit

lean_dec.exit:                                    ; preds = %23, %22, %20, %lean_inc.exit
  %24 = tail call ptr @l_Lean_PersistentHashMap_findEntryAux___rarg(ptr noundef %0, ptr noundef %2, i64 noundef %.val, ptr noundef %3)
  ret ptr %24
}